target datalayout = "e-m:e-p270:32:32-p271:32:32-p272:64:64-i64:64-i128:128-f80:128-n8:16:32:64-S128"
target triple = "x86_64-pc-linux-gnu"

%"struct.cv::Subdiv2D::QuadEdge" = type { [4 x i32], [4 x i32] }

; Function Attrs: mustprogress nounwind uwtable
define void @_ZN2cv8Subdiv2D8QuadEdgeC2Ei(ptr noundef nonnull align 4 dereferenceable(32) %0, i32 noundef %1) unnamed_addr #0 align 2 {
  %3 = alloca ptr, align 8
  %4 = alloca i32, align 4
  store ptr %0, ptr %3, align 8, !tbaa !54
  store i32 %1, ptr %4, align 4, !tbaa !8
  %5 = load ptr, ptr %3, align 8
  %6 = load i32, ptr %4, align 4, !tbaa !8
  %7 = getelementptr inbounds nuw %"struct.cv::Subdiv2D::QuadEdge", ptr %5, i32 0, i32 0
  %8 = getelementptr inbounds [4 x i32], ptr %7, i64 0, i64 0
  store i32 %6, ptr %8, align 4, !tbaa !8
  %9 = load i32, ptr %4, align 4, !tbaa !8
  %10 = add nsw i32 %9, 3
  %11 = getelementptr inbounds nuw %"struct.cv::Subdiv2D::QuadEdge", ptr %5, i32 0, i32 0
  %12 = getelementptr inbounds [4 x i32], ptr %11, i64 0, i64 1
  store i32 %10, ptr %12, align 4, !tbaa !8
  %13 = load i32, ptr %4, align 4, !tbaa !8
  %14 = add nsw i32 %13, 2
  %15 = getelementptr inbounds nuw %"struct.cv::Subdiv2D::QuadEdge", ptr %5, i32 0, i32 0
  %16 = getelementptr inbounds [4 x i32], ptr %15, i64 0, i64 2
  store i32 %14, ptr %16, align 4, !tbaa !8
  %17 = load i32, ptr %4, align 4, !tbaa !8
  %18 = add nsw i32 %17, 1
  %19 = getelementptr inbounds nuw %"struct.cv::Subdiv2D::QuadEdge", ptr %5, i32 0, i32 0
  %20 = getelementptr inbounds [4 x i32], ptr %19, i64 0, i64 3
  store i32 %18, ptr %20, align 4, !tbaa !8
  %21 = getelementptr inbounds nuw %"struct.cv::Subdiv2D::QuadEdge", ptr %5, i32 0, i32 1
  %22 = getelementptr inbounds [4 x i32], ptr %21, i64 0, i64 3
  store i32 0, ptr %22, align 4, !tbaa !8
  %23 = getelementptr inbounds nuw %"struct.cv::Subdiv2D::QuadEdge", ptr %5, i32 0, i32 1
  %24 = getelementptr inbounds [4 x i32], ptr %23, i64 0, i64 2
  store i32 0, ptr %24, align 4, !tbaa !8
  %25 = getelementptr inbounds nuw %"struct.cv::Subdiv2D::QuadEdge", ptr %5, i32 0, i32 1
  %26 = getelementptr inbounds [4 x i32], ptr %25, i64 0, i64 1
  store i32 0, ptr %26, align 4, !tbaa !8
  %27 = getelementptr inbounds nuw %"struct.cv::Subdiv2D::QuadEdge", ptr %5, i32 0, i32 1
  %28 = getelementptr inbounds [4 x i32], ptr %27, i64 0, i64 0
  store i32 0, ptr %28, align 4, !tbaa !8
  ret void
}