; Function Attrs: mustprogress nofree norecurse nosync nounwind willreturn memory(argmem: write) uwtable
define void @_ZN2cv8Subdiv2D8QuadEdgeC2Ei(ptr noundef nonnull writeonly align 4 captures(none) dereferenceable(32) initializes((0, 32)) %0, i32 noundef %1) unnamed_addr #6 align 2 {
  store i32 %1, ptr %0, align 4, !tbaa !9
  %3 = add nsw i32 %1, 3
  %4 = getelementptr inbounds nuw i8, ptr %0, i64 4
  store i32 %3, ptr %4, align 4, !tbaa !9
  %5 = add nsw i32 %1, 2
  %6 = getelementptr inbounds nuw i8, ptr %0, i64 8
  store i32 %5, ptr %6, align 4, !tbaa !9
  %7 = add nsw i32 %1, 1
  %8 = getelementptr inbounds nuw i8, ptr %0, i64 12
  store i32 %7, ptr %8, align 4, !tbaa !9
  %9 = getelementptr inbounds nuw i8, ptr %0, i64 16
  tail call void @llvm.memset.p0.i64(ptr noundef nonnull align 4 dereferenceable(16) %9, i8 0, i64 16, i1 false)
  ret void
}